; Function Attrs: nounwind uwtable
define ptr @l_Lean_Elab_Tactic_BVDecide_Frontend_Normalize_andFlatteningPass_trySplit___lambda__3(ptr noundef %0, ptr noundef %1, ptr noundef %2, ptr noundef %3, ptr noundef %4, ptr noundef %5, ptr noundef %6, ptr noundef %7, ptr noundef %8, ptr noundef %9, ptr noundef %10) local_unnamed_addr #1 {
  %12 = load ptr, ptr @l_Lean_Elab_Tactic_BVDecide_Frontend_Normalize_andFlatteningPass_trySplit___lambda__3___closed__1, align 8, !tbaa !9
  %13 = tail call ptr @l_Lean_Expr_cleanupAnnotations(ptr noundef %0) #4
  %14 = load ptr, ptr @l_Lean_Elab_Tactic_BVDecide_Frontend_Normalize_andFlatteningPass_trySplit___lambda__1___closed__10, align 8, !tbaa !9
  %15 = tail call zeroext i8 @l_Lean_Expr_isConstOf(ptr noundef %13, ptr noundef %14) #4
  %16 = ptrtoint ptr %13 to i64
  %17 = and i64 %16, 1
  %.not = icmp eq i64 %17, 0
  br i1 %.not, label %18, label %lean_dec.exit

18:                                               ; preds = %11
  %19 = load i32, ptr %13, align 4, !tbaa !4
  %20 = icmp sgt i32 %19, 1
  br i1 %20, label %21, label %23, !prof !11

21:                                               ; preds = %18
  %22 = add nsw i32 %19, -1
  store i32 %22, ptr %13, align 4, !tbaa !4
  br label %lean_dec.exit

23:                                               ; preds = %18
  %.not.i60 = icmp eq i32 %19, 0
  br i1 %.not.i60, label %lean_dec.exit, label %24

24:                                               ; preds = %23
  tail call void @lean_dec_ref_cold(ptr noundef nonnull %13) #4
  br label %lean_dec.exit

lean_dec.exit:                                    ; preds = %24, %23, %21, %11
  %25 = icmp eq i8 %15, 0
  br i1 %25, label %26, label %64

26:                                               ; preds = %lean_dec.exit
  %27 = ptrtoint ptr %4 to i64
  %28 = and i64 %27, 1
  %.not67 = icmp eq i64 %28, 0
  br i1 %.not67, label %29, label %lean_dec.exit35

29:                                               ; preds = %26
  %30 = load i32, ptr %4, align 4, !tbaa !4
  %31 = icmp sgt i32 %30, 1
  br i1 %31, label %32, label %34, !prof !11

32:                                               ; preds = %29
  %33 = add nsw i32 %30, -1
  store i32 %33, ptr %4, align 4, !tbaa !4
  br label %lean_dec.exit35

34:                                               ; preds = %29
  %.not.i58 = icmp eq i32 %30, 0
  br i1 %.not.i58, label %lean_dec.exit35, label %35

35:                                               ; preds = %34
  tail call void @lean_dec_ref_cold(ptr noundef nonnull %4) #4
  br label %lean_dec.exit35

lean_dec.exit35:                                  ; preds = %35, %34, %32, %26
  %36 = ptrtoint ptr %3 to i64
  %37 = and i64 %36, 1
  %.not68 = icmp eq i64 %37, 0
  br i1 %.not68, label %38, label %lean_dec.exit36

38:                                               ; preds = %lean_dec.exit35
  %39 = load i32, ptr %3, align 4, !tbaa !4
  %40 = icmp sgt i32 %39, 1
  br i1 %40, label %41, label %43, !prof !11

41:                                               ; preds = %38
  %42 = add nsw i32 %39, -1
  store i32 %42, ptr %3, align 4, !tbaa !4
  br label %lean_dec.exit36

43:                                               ; preds = %38
  %.not.i56 = icmp eq i32 %39, 0
  br i1 %.not.i56, label %lean_dec.exit36, label %44

44:                                               ; preds = %43
  tail call void @lean_dec_ref_cold(ptr noundef nonnull %3) #4
  br label %lean_dec.exit36

lean_dec.exit36:                                  ; preds = %44, %43, %41, %lean_dec.exit35
  %45 = ptrtoint ptr %2 to i64
  %46 = and i64 %45, 1
  %.not69 = icmp eq i64 %46, 0
  br i1 %.not69, label %47, label %lean_dec.exit37

47:                                               ; preds = %lean_dec.exit36
  %48 = load i32, ptr %2, align 4, !tbaa !4
  %49 = icmp sgt i32 %48, 1
  br i1 %49, label %50, label %52, !prof !11

50:                                               ; preds = %47
  %51 = add nsw i32 %48, -1
  store i32 %51, ptr %2, align 4, !tbaa !4
  br label %lean_dec.exit37

52:                                               ; preds = %47
  %.not.i54 = icmp eq i32 %48, 0
  br i1 %.not.i54, label %lean_dec.exit37, label %53

53:                                               ; preds = %52
  tail call void @lean_dec_ref_cold(ptr noundef nonnull %2) #4
  br label %lean_dec.exit37

lean_dec.exit37:                                  ; preds = %53, %52, %50, %lean_dec.exit36
  %54 = ptrtoint ptr %1 to i64
  %55 = and i64 %54, 1
  %.not70 = icmp eq i64 %55, 0
  br i1 %.not70, label %56, label %lean_dec.exit38

56:                                               ; preds = %lean_dec.exit37
  %57 = load i32, ptr %1, align 4, !tbaa !4
  %58 = icmp sgt i32 %57, 1
  br i1 %58, label %59, label %61, !prof !11

59:                                               ; preds = %56
  %60 = add nsw i32 %57, -1
  store i32 %60, ptr %1, align 4, !tbaa !4
  br label %lean_dec.exit38

61:                                               ; preds = %56
  %.not.i52 = icmp eq i32 %57, 0
  br i1 %.not.i52, label %lean_dec.exit38, label %62

62:                                               ; preds = %61
  tail call void @lean_dec_ref_cold(ptr noundef nonnull %1) #4
  br label %lean_dec.exit38

lean_dec.exit38:                                  ; preds = %62, %61, %59, %lean_dec.exit37
  %63 = tail call ptr @lean_apply_7(ptr noundef %12, ptr noundef nonnull inttoptr (i64 1 to ptr), ptr noundef %5, ptr noundef %6, ptr noundef %7, ptr noundef %8, ptr noundef %9, ptr noundef %10) #4
  br label %lean_dec.exit43

64:                                               ; preds = %lean_dec.exit
  %65 = tail call ptr @l_Lean_Elab_Tactic_BVDecide_Frontend_Normalize_andFlatteningPass_trySplit___lambda__1(ptr noundef %3, ptr noundef %4, ptr noundef %1, ptr noundef %2, ptr nonnull poison, ptr poison, ptr poison, ptr poison, ptr poison, ptr poison, ptr noundef %10)
  %66 = ptrtoint ptr %9 to i64
  %67 = and i64 %66, 1
  %.not62 = icmp eq i64 %67, 0
  br i1 %.not62, label %68, label %lean_dec.exit39

68:                                               ; preds = %64
  %69 = load i32, ptr %9, align 4, !tbaa !4
  %70 = icmp sgt i32 %69, 1
  br i1 %70, label %71, label %73, !prof !11

71:                                               ; preds = %68
  %72 = add nsw i32 %69, -1
  store i32 %72, ptr %9, align 4, !tbaa !4
  br label %lean_dec.exit39

73:                                               ; preds = %68
  %.not.i50 = icmp eq i32 %69, 0
  br i1 %.not.i50, label %lean_dec.exit39, label %74

74:                                               ; preds = %73
  tail call void @lean_dec_ref_cold(ptr noundef nonnull %9) #4
  br label %lean_dec.exit39

lean_dec.exit39:                                  ; preds = %74, %73, %71, %64
  %75 = ptrtoint ptr %8 to i64
  %76 = and i64 %75, 1
  %.not63 = icmp eq i64 %76, 0
  br i1 %.not63, label %77, label %lean_dec.exit40

77:                                               ; preds = %lean_dec.exit39
  %78 = load i32, ptr %8, align 4, !tbaa !4
  %79 = icmp sgt i32 %78, 1
  br i1 %79, label %80, label %82, !prof !11

80:                                               ; preds = %77
  %81 = add nsw i32 %78, -1
  store i32 %81, ptr %8, align 4, !tbaa !4
  br label %lean_dec.exit40

82:                                               ; preds = %77
  %.not.i48 = icmp eq i32 %78, 0
  br i1 %.not.i48, label %lean_dec.exit40, label %83

83:                                               ; preds = %82
  tail call void @lean_dec_ref_cold(ptr noundef nonnull %8) #4
  br label %lean_dec.exit40

lean_dec.exit40:                                  ; preds = %83, %82, %80, %lean_dec.exit39
  %84 = ptrtoint ptr %7 to i64
  %85 = and i64 %84, 1
  %.not64 = icmp eq i64 %85, 0
  br i1 %.not64, label %86, label %lean_dec.exit41

86:                                               ; preds = %lean_dec.exit40
  %87 = load i32, ptr %7, align 4, !tbaa !4
  %88 = icmp sgt i32 %87, 1
  br i1 %88, label %89, label %91, !prof !11

89:                                               ; preds = %86
  %90 = add nsw i32 %87, -1
  store i32 %90, ptr %7, align 4, !tbaa !4
  br label %lean_dec.exit41

91:                                               ; preds = %86
  %.not.i46 = icmp eq i32 %87, 0
  br i1 %.not.i46, label %lean_dec.exit41, label %92

92:                                               ; preds = %91
  tail call void @lean_dec_ref_cold(ptr noundef nonnull %7) #4
  br label %lean_dec.exit41

lean_dec.exit41:                                  ; preds = %92, %91, %89, %lean_dec.exit40
  %93 = ptrtoint ptr %6 to i64
  %94 = and i64 %93, 1
  %.not65 = icmp eq i64 %94, 0
  br i1 %.not65, label %95, label %lean_dec.exit42

95:                                               ; preds = %lean_dec.exit41
  %96 = load i32, ptr %6, align 4, !tbaa !4
  %97 = icmp sgt i32 %96, 1
  br i1 %97, label %98, label %100, !prof !11

98:                                               ; preds = %95
  %99 = add nsw i32 %96, -1
  store i32 %99, ptr %6, align 4, !tbaa !4
  br label %lean_dec.exit42

100:                                              ; preds = %95
  %.not.i44 = icmp eq i32 %96, 0
  br i1 %.not.i44, label %lean_dec.exit42, label %101

101:                                              ; preds = %100
  tail call void @lean_dec_ref_cold(ptr noundef nonnull %6) #4
  br label %lean_dec.exit42

lean_dec.exit42:                                  ; preds = %101, %100, %98, %lean_dec.exit41
  %102 = ptrtoint ptr %5 to i64
  %103 = and i64 %102, 1
  %.not66 = icmp eq i64 %103, 0
  br i1 %.not66, label %104, label %lean_dec.exit43

104:                                              ; preds = %lean_dec.exit42
  %105 = load i32, ptr %5, align 4, !tbaa !4
  %106 = icmp sgt i32 %105, 1
  br i1 %106, label %107, label %109, !prof !11

107:                                              ; preds = %104
  %108 = add nsw i32 %105, -1
  store i32 %108, ptr %5, align 4, !tbaa !4
  br label %lean_dec.exit43

109:                                              ; preds = %104
  %.not.i = icmp eq i32 %105, 0
  br i1 %.not.i, label %lean_dec.exit43, label %110

110:                                              ; preds = %109
  tail call void @lean_dec_ref_cold(ptr noundef nonnull %5) #4
  br label %lean_dec.exit43

lean_dec.exit43:                                  ; preds = %lean_dec.exit42, %107, %109, %110, %lean_dec.exit38
  %.0 = phi ptr [ %63, %lean_dec.exit38 ], [ %65, %110 ], [ %65, %109 ], [ %65, %107 ], [ %65, %lean_dec.exit42 ]
  ret ptr %.0
}